; Function Attrs: nounwind uwtable
define range(i32 -1, 1) i32 @H5O__are_mdc_flushes_disabled(ptr nocapture noundef readonly %0, ptr noundef %1) local_unnamed_addr #0 {
  %3 = load ptr, ptr %0, align 8
  %4 = getelementptr inbounds i8, ptr %0, i64 8
  %5 = load i64, ptr %4, align 8
  %6 = tail call i32 @H5AC_cork(ptr noundef %3, i64 noundef %5, i32 noundef 4, ptr noundef %1) #4
  %7 = icmp slt i32 %6, 0
  br i1 %7, label %8, label %12

8:                                                ; preds = %2
  %9 = load i64, ptr @H5E_OHDR_g, align 8
  %10 = load i64, ptr @H5E_CANTGET_g, align 8
  %11 = tail call i32 (ptr, ptr, i32, i64, i64, ptr, ...) @H5E_printf_stack(ptr noundef nonnull @.str, ptr noundef nonnull @__func__.H5O__are_mdc_flushes_disabled, i32 noundef 2133, i64 noundef %9, i64 noundef %10, ptr noundef nonnull @.str.85) #4
  br label %12

12:                                               ; preds = %2, %8
  %.0 = phi i32 [ -1, %8 ], [ 0, %2 ]
  ret i32 %.0
}